target datalayout = "e-m:e-p270:32:32-p271:32:32-p272:64:64-i64:64-i128:128-f80:128-n8:16:32:64-S128"
target triple = "x86_64-pc-linux-gnu"

; Function Attrs: nounwind uwtable
define i32 @lv_memcmp(ptr noundef %0, ptr noundef %1, i64 noundef %2) #0 {
  %4 = alloca ptr, align 8
  %5 = alloca ptr, align 8
  %6 = alloca i64, align 8
  %7 = alloca ptr, align 8
  %8 = alloca ptr, align 8
  store ptr %0, ptr %4, align 8, !tbaa !3
  store ptr %1, ptr %5, align 8, !tbaa !3
  store i64 %2, ptr %6, align 8, !tbaa !7
  call void @llvm.lifetime.start.p0(i64 8, ptr %7) #3
  %9 = load ptr, ptr %4, align 8, !tbaa !3
  store ptr %9, ptr %7, align 8, !tbaa !3
  call void @llvm.lifetime.start.p0(i64 8, ptr %8) #3
  %10 = load ptr, ptr %5, align 8, !tbaa !3
  store ptr %10, ptr %8, align 8, !tbaa !3
  br label %11

11:                                               ; preds = %25, %3
  %12 = load i64, ptr %6, align 8, !tbaa !7
  %13 = add i64 %12, -1
  store i64 %13, ptr %6, align 8, !tbaa !7
  %14 = icmp ugt i64 %13, 0
  br i1 %14, label %15, label %23

15:                                               ; preds = %11
  %16 = load ptr, ptr %7, align 8, !tbaa !3
  %17 = load i8, ptr %16, align 1, !tbaa !9
  %18 = sext i8 %17 to i32
  %19 = load ptr, ptr %8, align 8, !tbaa !3
  %20 = load i8, ptr %19, align 1, !tbaa !9
  %21 = sext i8 %20 to i32
  %22 = icmp eq i32 %18, %21
  br label %23

23:                                               ; preds = %15, %11
  %24 = phi i1 [ false, %11 ], [ %22, %15 ]
  br i1 %24, label %25, label %30

25:                                               ; preds = %23
  %26 = load ptr, ptr %7, align 8, !tbaa !3
  %27 = getelementptr inbounds nuw i8, ptr %26, i32 1
  store ptr %27, ptr %7, align 8, !tbaa !3
  %28 = load ptr, ptr %8, align 8, !tbaa !3
  %29 = getelementptr inbounds nuw i8, ptr %28, i32 1
  store ptr %29, ptr %8, align 8, !tbaa !3
  br label %11, !llvm.loop !24

30:                                               ; preds = %23
  %31 = load ptr, ptr %7, align 8, !tbaa !3
  %32 = load i8, ptr %31, align 1, !tbaa !9
  %33 = sext i8 %32 to i32
  %34 = load ptr, ptr %8, align 8, !tbaa !3
  %35 = load i8, ptr %34, align 1, !tbaa !9
  %36 = sext i8 %35 to i32
  %37 = sub nsw i32 %33, %36
  call void @llvm.lifetime.end.p0(i64 8, ptr %8) #3
  call void @llvm.lifetime.end.p0(i64 8, ptr %7) #3
  ret i32 %37
}