; Function Attrs: nofree norecurse nosync nounwind memory(argmem: read) uwtable
define range(i32 -255, 256) i32 @lv_memcmp(ptr nocapture noundef readonly %0, ptr nocapture noundef readonly %1, i64 noundef %2) local_unnamed_addr #2 {
  %4 = add i64 %2, -1
  %.not11 = icmp eq i64 %4, 0
  br i1 %.not11, label %.critedge, label %.lr.ph.preheader

.lr.ph.preheader:                                 ; preds = %3
  %scevgep = getelementptr i8, ptr %0, i64 %4
  %scevgep18 = getelementptr i8, ptr %1, i64 %4
  br label %.lr.ph

.lr.ph:                                           ; preds = %.lr.ph.preheader, %9
  %5 = phi i64 [ %12, %9 ], [ %4, %.lr.ph.preheader ]
  %.013 = phi ptr [ %11, %9 ], [ %1, %.lr.ph.preheader ]
  %.0812 = phi ptr [ %10, %9 ], [ %0, %.lr.ph.preheader ]
  %6 = load i8, ptr %.0812, align 1, !tbaa !3
  %7 = load i8, ptr %.013, align 1, !tbaa !3
  %8 = icmp eq i8 %6, %7
  br i1 %8, label %9, label %.critedge

9:                                                ; preds = %.lr.ph
  %10 = getelementptr inbounds nuw i8, ptr %.0812, i64 1
  %11 = getelementptr inbounds nuw i8, ptr %.013, i64 1
  %12 = add i64 %5, -1
  %.not = icmp eq i64 %12, 0
  br i1 %.not, label %.critedge, label %.lr.ph, !llvm.loop !18

.critedge:                                        ; preds = %.lr.ph, %9, %3
  %.08.lcssa = phi ptr [ %0, %3 ], [ %scevgep, %9 ], [ %.0812, %.lr.ph ]
  %.0.lcssa = phi ptr [ %1, %3 ], [ %scevgep18, %9 ], [ %.013, %.lr.ph ]
  %13 = load i8, ptr %.08.lcssa, align 1, !tbaa !3
  %14 = sext i8 %13 to i32
  %15 = load i8, ptr %.0.lcssa, align 1, !tbaa !3
  %16 = sext i8 %15 to i32
  %17 = sub nsw i32 %14, %16
  ret i32 %17
}